target datalayout = "e-m:e-p270:32:32-p271:32:32-p272:64:64-i64:64-i128:128-f80:128-n8:16:32:64-S128"
target triple = "x86_64-unknown-linux-gnu"

%"class.boost::detail::shared_count" = type { ptr }
%"class.QuantLib::Array" = type { %"class.std::unique_ptr", i64 }
%"class.std::unique_ptr" = type { %"struct.std::__uniq_ptr_data" }
%"struct.std::__uniq_ptr_data" = type { %"class.std::__uniq_ptr_impl" }
%"class.std::__uniq_ptr_impl" = type { %"class.std::tuple" }
%"class.std::tuple" = type { %"struct.std::_Tuple_impl" }
%"struct.std::_Tuple_impl" = type { %"struct.std::_Head_base.7" }
%"struct.std::_Head_base.7" = type { ptr }
%"class.QuantLib::TripleBandLinearOp" = type { %"class.QuantLib::FdmLinearOp", i64, %"class.std::unique_ptr.31", %"class.std::unique_ptr.31", %"class.std::unique_ptr.31", %"class.std::unique_ptr", %"class.std::unique_ptr", %"class.std::unique_ptr", %"class.boost::shared_ptr.39" }
%"class.QuantLib::FdmLinearOp" = type { ptr }
%"class.std::unique_ptr.31" = type { %"struct.std::__uniq_ptr_data.32" }
%"struct.std::__uniq_ptr_data.32" = type { %"class.std::__uniq_ptr_impl.33" }
%"class.std::__uniq_ptr_impl.33" = type { %"class.std::tuple.34" }
%"class.std::tuple.34" = type { %"struct.std::_Tuple_impl.35" }
%"struct.std::_Tuple_impl.35" = type { %"struct.std::_Head_base.38" }
%"struct.std::_Head_base.38" = type { ptr }
%"class.boost::shared_ptr.39" = type { ptr, %"class.boost::detail::shared_count" }
%"class.QuantLib::FdmCIREquityPart" = type { %"class.QuantLib::FirstDerivativeOp", %"class.QuantLib::TripleBandLinearOp", %"class.QuantLib::TripleBandLinearOp", %"class.boost::shared_ptr.39", %"class.boost::shared_ptr.40", double, %"class.boost::shared_ptr.41" }
%"class.QuantLib::FirstDerivativeOp" = type { %"class.QuantLib::TripleBandLinearOp" }
%"class.boost::shared_ptr.40" = type { ptr, %"class.boost::detail::shared_count" }
%"class.boost::shared_ptr.41" = type { ptr, %"class.boost::detail::shared_count" }
%"class.QuantLib::FdmCIRRatesPart" = type { %"class.QuantLib::TripleBandLinearOp", %"class.QuantLib::TripleBandLinearOp", %"class.boost::shared_ptr.39" }
%"class.QuantLib::NinePointLinearOp" = type { %"class.QuantLib::FdmLinearOp", i64, i64, %"class.std::unique_ptr.31", %"class.std::unique_ptr.31", %"class.std::unique_ptr.31", %"class.std::unique_ptr.31", %"class.std::unique_ptr.31", %"class.std::unique_ptr.31", %"class.std::unique_ptr.31", %"class.std::unique_ptr.31", %"class.std::unique_ptr", %"class.std::unique_ptr", %"class.std::unique_ptr", %"class.std::unique_ptr", %"class.std::unique_ptr", %"class.std::unique_ptr", %"class.std::unique_ptr", %"class.std::unique_ptr", %"class.std::unique_ptr", %"class.boost::shared_ptr.39" }
%"class.QuantLib::FdmCIRMixedPart" = type { %"class.QuantLib::NinePointLinearOp", %"class.QuantLib::NinePointLinearOp", %"class.boost::shared_ptr.39", %"class.boost::shared_ptr.41", double }
%"class.QuantLib::FdmCIROp" = type { %"class.QuantLib::FdmLinearOpComposite", %"class.QuantLib::FdmCIREquityPart", %"class.QuantLib::FdmCIRRatesPart", %"class.QuantLib::FdmCIRMixedPart" }
%"class.QuantLib::FdmLinearOpComposite" = type { %"class.QuantLib::FdmLinearOp" }

; Function Attrs: mustprogress nounwind uwtable
define noundef nonnull align 8 dereferenceable(176) ptr @_ZNK8QuantLib15FdmCIRMixedPart6getMapEv(ptr noundef nonnull align 8 dereferenceable(392) %this) #9 align 2 {
entry:
  %this.addr = alloca ptr, align 8
  store ptr %this, ptr %this.addr, align 8, !tbaa !3
  %this1 = load ptr, ptr %this.addr, align 8
  %mapT_ = getelementptr inbounds nuw %"class.QuantLib::FdmCIRMixedPart", ptr %this1, i32 0, i32 1
  ret ptr %mapT_
}

; Function Attrs: mustprogress uwtable
define void @_ZNK8QuantLib8FdmCIROp11apply_mixedERKNS_5ArrayE(ptr dead_on_unwind noalias writable sret(%"class.QuantLib::Array") align 8 %agg.result, ptr noundef nonnull align 8 dereferenceable(872) %this, ptr noundef nonnull align 8 dereferenceable(16) %r) unnamed_addr #7 align 2 {
entry:
  %result.ptr = alloca ptr, align 8
  %this.addr = alloca ptr, align 8
  %r.addr = alloca ptr, align 8
  store ptr %agg.result, ptr %result.ptr, align 8
  store ptr %this, ptr %this.addr, align 8, !tbaa !3
  store ptr %r, ptr %r.addr, align 8, !tbaa !3
  %this1 = load ptr, ptr %this.addr, align 8
  %dzMap_ = getelementptr inbounds nuw %"class.QuantLib::FdmCIROp", ptr %this1, i32 0, i32 3
  %call = call noundef nonnull align 8 dereferenceable(176) ptr @_ZNK8QuantLib15FdmCIRMixedPart6getMapEv(ptr noundef nonnull align 8 dereferenceable(392) %dzMap_)
  %0 = load ptr, ptr %r.addr, align 8, !tbaa !3
  %vtable = load ptr, ptr %call, align 8, !tbaa !7
  %vfn = getelementptr inbounds ptr, ptr %vtable, i64 2
  %1 = load ptr, ptr %vfn, align 8
  call void %1(ptr dead_on_unwind writable sret(%"class.QuantLib::Array") align 8 %agg.result, ptr noundef nonnull align 8 dereferenceable(176) %call, ptr noundef nonnull align 8 dereferenceable(16) %0)
  ret void
}