; Function Attrs: mustprogress uwtable
define void @_ZNK8QuantLib8FdmCIROp11apply_mixedERKNS_5ArrayE(ptr dead_on_unwind noalias writable sret(%"class.QuantLib::Array") align 8 %agg.result, ptr noundef nonnull align 8 dereferenceable(872) %this, ptr noundef nonnull align 8 dereferenceable(16) %r) unnamed_addr #6 align 2 {
entry:
  %mapT_.i = getelementptr inbounds nuw i8, ptr %this, i64 656
  %vtable = load ptr, ptr %mapT_.i, align 8, !tbaa !14
  %vfn = getelementptr inbounds i8, ptr %vtable, i64 16
  %0 = load ptr, ptr %vfn, align 8
  tail call void %0(ptr dead_on_unwind writable sret(%"class.QuantLib::Array") align 8 %agg.result, ptr noundef nonnull align 8 dereferenceable(176) %mapT_.i, ptr noundef nonnull align 8 dereferenceable(16) %r)
  ret void
}